; Function Attrs: mustprogress nounwind uwtable
define hidden void @_ZN21ZStatMutatorAllocRate23update_sampling_granuleEv() local_unnamed_addr #0 align 2 {
  %1 = load ptr, ptr @_ZN5ZHeap5_heapE, align 8
  %2 = tail call noundef i64 @_ZNK5ZHeap17soft_max_capacityEv(ptr noundef nonnull align 64 dereferenceable(15937) %1) #20
  %3 = lshr i64 %2, 7
  %4 = add nuw nsw i64 %3, 2097151
  %5 = and i64 %4, 288230376149614592
  store volatile i64 %5, ptr @_ZN21ZStatMutatorAllocRate17_sampling_granuleE, align 8
  ret void
}